; Function Attrs: nofree norecurse nosync nounwind memory(argmem: readwrite) uwtable
define internal void @png_read_filter_row_sub(ptr noundef readonly captures(none) %0, ptr noundef captures(none) %1, ptr readnone captures(none) %2) #6 {
  %4 = getelementptr inbounds nuw i8, ptr %0, i64 8
  %5 = load i64, ptr %4, align 8, !tbaa !79
  %6 = getelementptr inbounds nuw i8, ptr %0, i64 19
  %7 = load i8, ptr %6, align 1, !tbaa !70
  %8 = zext i8 %7 to i64
  %9 = add nuw nsw i64 %8, 7
  %10 = lshr i64 %9, 3
  %11 = icmp ult i64 %10, %5
  br i1 %11, label %.lr.ph, label %._crit_edge

.lr.ph:                                           ; preds = %3
  %12 = getelementptr inbounds nuw i8, ptr %1, i64 %10
  %13 = sub nsw i64 0, %10
  br label %14

14:                                               ; preds = %.lr.ph, %14
  %.014 = phi ptr [ %12, %.lr.ph ], [ %18, %14 ]
  %.01213 = phi i64 [ %10, %.lr.ph ], [ %19, %14 ]
  %15 = load i8, ptr %.014, align 1, !tbaa !3
  %16 = getelementptr inbounds i8, ptr %.014, i64 %13
  %17 = load i8, ptr %16, align 1, !tbaa !3
  %.narrow = add i8 %17, %15
  store i8 %.narrow, ptr %.014, align 1, !tbaa !3
  %18 = getelementptr inbounds nuw i8, ptr %.014, i64 1
  %19 = add nuw i64 %.01213, 1
  %exitcond.not = icmp eq i64 %19, %5
  br i1 %exitcond.not, label %._crit_edge, label %14, !llvm.loop !259

._crit_edge:                                      ; preds = %14, %3
  ret void
}